
test:     file format elf64-littleaarch64


Disassembly of section .init:

0000000000400750 <_init>:
  400750:	a9bf7bfd 	stp	x29, x30, [sp,#-16]!
  400754:	910003fd 	mov	x29, sp
  400758:	94000064 	bl	4008e8 <call_weak_fn>
  40075c:	a8c17bfd 	ldp	x29, x30, [sp],#16
  400760:	d65f03c0 	ret

Disassembly of section .plt:

0000000000400770 <memcpy@plt-0x20>:
  400770:	a9bf7bf0 	stp	x16, x30, [sp,#-16]!
  400774:	b0000090 	adrp	x16, 411000 <__FRAME_END__+0xf518>
  400778:	f9467e11 	ldr	x17, [x16,#3320]
  40077c:	9133e210 	add	x16, x16, #0xcf8
  400780:	d61f0220 	br	x17
  400784:	d503201f 	nop
  400788:	d503201f 	nop
  40078c:	d503201f 	nop

0000000000400790 <memcpy@plt>:
  400790:	b0000090 	adrp	x16, 411000 <__FRAME_END__+0xf518>
  400794:	f9468211 	ldr	x17, [x16,#3328]
  400798:	91340210 	add	x16, x16, #0xd00
  40079c:	d61f0220 	br	x17

00000000004007a0 <exit@plt>:
  4007a0:	b0000090 	adrp	x16, 411000 <__FRAME_END__+0xf518>
  4007a4:	f9468611 	ldr	x17, [x16,#3336]
  4007a8:	91342210 	add	x16, x16, #0xd08
  4007ac:	d61f0220 	br	x17

00000000004007b0 <perror@plt>:
  4007b0:	b0000090 	adrp	x16, 411000 <__FRAME_END__+0xf518>
  4007b4:	f9468a11 	ldr	x17, [x16,#3344]
  4007b8:	91344210 	add	x16, x16, #0xd10
  4007bc:	d61f0220 	br	x17

00000000004007c0 <open@plt>:
  4007c0:	b0000090 	adrp	x16, 411000 <__FRAME_END__+0xf518>
  4007c4:	f9468e11 	ldr	x17, [x16,#3352]
  4007c8:	91346210 	add	x16, x16, #0xd18
  4007cc:	d61f0220 	br	x17

00000000004007d0 <__libc_start_main@plt>:
  4007d0:	b0000090 	adrp	x16, 411000 <__FRAME_END__+0xf518>
  4007d4:	f9469211 	ldr	x17, [x16,#3360]
  4007d8:	91348210 	add	x16, x16, #0xd20
  4007dc:	d61f0220 	br	x17

00000000004007e0 <strerror@plt>:
  4007e0:	b0000090 	adrp	x16, 411000 <__FRAME_END__+0xf518>
  4007e4:	f9469611 	ldr	x17, [x16,#3368]
  4007e8:	9134a210 	add	x16, x16, #0xd28
  4007ec:	d61f0220 	br	x17

00000000004007f0 <close@plt>:
  4007f0:	b0000090 	adrp	x16, 411000 <__FRAME_END__+0xf518>
  4007f4:	f9469a11 	ldr	x17, [x16,#3376]
  4007f8:	9134c210 	add	x16, x16, #0xd30
  4007fc:	d61f0220 	br	x17

0000000000400800 <__gmon_start__@plt>:
  400800:	b0000090 	adrp	x16, 411000 <__FRAME_END__+0xf518>
  400804:	f9469e11 	ldr	x17, [x16,#3384]
  400808:	9134e210 	add	x16, x16, #0xd38
  40080c:	d61f0220 	br	x17

0000000000400810 <abort@plt>:
  400810:	b0000090 	adrp	x16, 411000 <__FRAME_END__+0xf518>
  400814:	f946a211 	ldr	x17, [x16,#3392]
  400818:	91350210 	add	x16, x16, #0xd40
  40081c:	d61f0220 	br	x17

0000000000400820 <puts@plt>:
  400820:	b0000090 	adrp	x16, 411000 <__FRAME_END__+0xf518>
  400824:	f946a611 	ldr	x17, [x16,#3400]
  400828:	91352210 	add	x16, x16, #0xd48
  40082c:	d61f0220 	br	x17

0000000000400830 <mmap@plt>:
  400830:	b0000090 	adrp	x16, 411000 <__FRAME_END__+0xf518>
  400834:	f946aa11 	ldr	x17, [x16,#3408]
  400838:	91354210 	add	x16, x16, #0xd50
  40083c:	d61f0220 	br	x17

0000000000400840 <munmap@plt>:
  400840:	b0000090 	adrp	x16, 411000 <__FRAME_END__+0xf518>
  400844:	f946ae11 	ldr	x17, [x16,#3416]
  400848:	91356210 	add	x16, x16, #0xd58
  40084c:	d61f0220 	br	x17

0000000000400850 <usleep@plt>:
  400850:	b0000090 	adrp	x16, 411000 <__FRAME_END__+0xf518>
  400854:	f946b211 	ldr	x17, [x16,#3424]
  400858:	91358210 	add	x16, x16, #0xd60
  40085c:	d61f0220 	br	x17

0000000000400860 <printf@plt>:
  400860:	b0000090 	adrp	x16, 411000 <__FRAME_END__+0xf518>
  400864:	f946b611 	ldr	x17, [x16,#3432]
  400868:	9135a210 	add	x16, x16, #0xd68
  40086c:	d61f0220 	br	x17

0000000000400870 <__errno_location@plt>:
  400870:	b0000090 	adrp	x16, 411000 <__FRAME_END__+0xf518>
  400874:	f946ba11 	ldr	x17, [x16,#3440]
  400878:	9135c210 	add	x16, x16, #0xd70
  40087c:	d61f0220 	br	x17

0000000000400880 <fprintf@plt>:
  400880:	b0000090 	adrp	x16, 411000 <__FRAME_END__+0xf518>
  400884:	f946be11 	ldr	x17, [x16,#3448]
  400888:	9135e210 	add	x16, x16, #0xd78
  40088c:	d61f0220 	br	x17

0000000000400890 <ioctl@plt>:
  400890:	b0000090 	adrp	x16, 411000 <__FRAME_END__+0xf518>
  400894:	f946c211 	ldr	x17, [x16,#3456]
  400898:	91360210 	add	x16, x16, #0xd80
  40089c:	d61f0220 	br	x17

Disassembly of section .text:

00000000004008a0 <_start>:
  4008a0:	d280001d 	mov	x29, #0x0                   	// #0
  4008a4:	d280001e 	mov	x30, #0x0                   	// #0
  4008a8:	aa0003e5 	mov	x5, x0
  4008ac:	f94003e1 	ldr	x1, [sp]
  4008b0:	910023e2 	add	x2, sp, #0x8
  4008b4:	910003e6 	mov	x6, sp
  4008b8:	580000c0 	ldr	x0, 4008d0 <_start+0x30>
  4008bc:	580000e3 	ldr	x3, 4008d8 <_start+0x38>
  4008c0:	58000104 	ldr	x4, 4008e0 <_start+0x40>
  4008c4:	97ffffc3 	bl	4007d0 <__libc_start_main@plt>
  4008c8:	97ffffd2 	bl	400810 <abort@plt>
  4008cc:	00000000 	.word	0x00000000
  4008d0:	0040177c 	.word	0x0040177c
  4008d4:	00000000 	.word	0x00000000
  4008d8:	004017c0 	.word	0x004017c0
  4008dc:	00000000 	.word	0x00000000
  4008e0:	00401838 	.word	0x00401838
  4008e4:	00000000 	.word	0x00000000

00000000004008e8 <call_weak_fn>:
  4008e8:	b0000080 	adrp	x0, 411000 <__FRAME_END__+0xf518>
  4008ec:	f9467000 	ldr	x0, [x0,#3296]
  4008f0:	b4000040 	cbz	x0, 4008f8 <call_weak_fn+0x10>
  4008f4:	17ffffc3 	b	400800 <__gmon_start__@plt>
  4008f8:	d65f03c0 	ret
  4008fc:	00000000 	.inst	0x00000000 ; undefined

0000000000400900 <deregister_tm_clones>:
  400900:	b0000081 	adrp	x1, 411000 <__FRAME_END__+0xf518>
  400904:	b0000080 	adrp	x0, 411000 <__FRAME_END__+0xf518>
  400908:	91368021 	add	x1, x1, #0xda0
  40090c:	91368000 	add	x0, x0, #0xda0
  400910:	91001c21 	add	x1, x1, #0x7
  400914:	cb000021 	sub	x1, x1, x0
  400918:	f100383f 	cmp	x1, #0xe
  40091c:	54000089 	b.ls	40092c <deregister_tm_clones+0x2c>
  400920:	58000081 	ldr	x1, 400930 <deregister_tm_clones+0x30>
  400924:	b4000041 	cbz	x1, 40092c <deregister_tm_clones+0x2c>
  400928:	d61f0020 	br	x1
  40092c:	d65f03c0 	ret
	...

0000000000400938 <register_tm_clones>:
  400938:	b0000080 	adrp	x0, 411000 <__FRAME_END__+0xf518>
  40093c:	b0000081 	adrp	x1, 411000 <__FRAME_END__+0xf518>
  400940:	91368000 	add	x0, x0, #0xda0
  400944:	91368021 	add	x1, x1, #0xda0
  400948:	cb000021 	sub	x1, x1, x0
  40094c:	d2800042 	mov	x2, #0x2                   	// #2
  400950:	9343fc21 	asr	x1, x1, #3
  400954:	9ac20c21 	sdiv	x1, x1, x2
  400958:	b4000081 	cbz	x1, 400968 <register_tm_clones+0x30>
  40095c:	580000a2 	ldr	x2, 400970 <register_tm_clones+0x38>
  400960:	b4000042 	cbz	x2, 400968 <register_tm_clones+0x30>
  400964:	d61f0040 	br	x2
  400968:	d65f03c0 	ret
  40096c:	d503201f 	nop
	...

0000000000400978 <__do_global_dtors_aux>:
  400978:	a9be7bfd 	stp	x29, x30, [sp,#-32]!
  40097c:	910003fd 	mov	x29, sp
  400980:	f9000bf3 	str	x19, [sp,#16]
  400984:	b0000093 	adrp	x19, 411000 <__FRAME_END__+0xf518>
  400988:	3976a260 	ldrb	w0, [x19,#3496]
  40098c:	35000080 	cbnz	w0, 40099c <__do_global_dtors_aux+0x24>
  400990:	97ffffdc 	bl	400900 <deregister_tm_clones>
  400994:	52800020 	mov	w0, #0x1                   	// #1
  400998:	3936a260 	strb	w0, [x19,#3496]
  40099c:	f9400bf3 	ldr	x19, [sp,#16]
  4009a0:	a8c27bfd 	ldp	x29, x30, [sp],#32
  4009a4:	d65f03c0 	ret

00000000004009a8 <frame_dummy>:
  4009a8:	b0000080 	adrp	x0, 411000 <__FRAME_END__+0xf518>
  4009ac:	912c0000 	add	x0, x0, #0xb00
  4009b0:	f9400001 	ldr	x1, [x0]
  4009b4:	b40000e1 	cbz	x1, 4009d0 <frame_dummy+0x28>
  4009b8:	58000101 	ldr	x1, 4009d8 <frame_dummy+0x30>
  4009bc:	b40000a1 	cbz	x1, 4009d0 <frame_dummy+0x28>
  4009c0:	a9bf7bfd 	stp	x29, x30, [sp,#-16]!
  4009c4:	910003fd 	mov	x29, sp
  4009c8:	d63f0020 	blr	x1
  4009cc:	a8c17bfd 	ldp	x29, x30, [sp],#16
  4009d0:	17ffffda 	b	400938 <register_tm_clones>
  4009d4:	d503201f 	nop
	...

00000000004009e0 <errno_exit>:
  4009e0:	a9bd7bfd 	stp	x29, x30, [sp,#-48]!
  4009e4:	910003fd 	mov	x29, sp
  4009e8:	a90153f3 	stp	x19, x20, [sp,#16]
  4009ec:	f90017a0 	str	x0, [x29,#40]
  4009f0:	b0000080 	adrp	x0, 411000 <__FRAME_END__+0xf518>
  4009f4:	91368000 	add	x0, x0, #0xda0
  4009f8:	f9400013 	ldr	x19, [x0]
  4009fc:	97ffff9d 	bl	400870 <__errno_location@plt>
  400a00:	b9400014 	ldr	w20, [x0]
  400a04:	97ffff9b 	bl	400870 <__errno_location@plt>
  400a08:	b9400000 	ldr	w0, [x0]
  400a0c:	97ffff75 	bl	4007e0 <strerror@plt>
  400a10:	aa0003e1 	mov	x1, x0
  400a14:	b0000000 	adrp	x0, 401000 <map_asw_buffer+0xb8>
  400a18:	91216000 	add	x0, x0, #0x858
  400a1c:	aa0103e4 	mov	x4, x1
  400a20:	2a1403e3 	mov	w3, w20
  400a24:	f94017a2 	ldr	x2, [x29,#40]
  400a28:	aa0003e1 	mov	x1, x0
  400a2c:	aa1303e0 	mov	x0, x19
  400a30:	97ffff94 	bl	400880 <fprintf@plt>
  400a34:	52800020 	mov	w0, #0x1                   	// #1
  400a38:	97ffff5a 	bl	4007a0 <exit@plt>

0000000000400a3c <xioctl>:
  400a3c:	a9bd7bfd 	stp	x29, x30, [sp,#-48]!
  400a40:	910003fd 	mov	x29, sp
  400a44:	b9001fa0 	str	w0, [x29,#28]
  400a48:	b9001ba1 	str	w1, [x29,#24]
  400a4c:	f9000ba2 	str	x2, [x29,#16]
  400a50:	b9801ba0 	ldrsw	x0, [x29,#24]
  400a54:	f9400ba2 	ldr	x2, [x29,#16]
  400a58:	aa0003e1 	mov	x1, x0
  400a5c:	b9401fa0 	ldr	w0, [x29,#28]
  400a60:	97ffff8c 	bl	400890 <ioctl@plt>
  400a64:	b9002fa0 	str	w0, [x29,#44]
  400a68:	b9402fa0 	ldr	w0, [x29,#44]
  400a6c:	3100041f 	cmn	w0, #0x1
  400a70:	540000a1 	b.ne	400a84 <xioctl+0x48>
  400a74:	97ffff7f 	bl	400870 <__errno_location@plt>
  400a78:	b9400000 	ldr	w0, [x0]
  400a7c:	7100101f 	cmp	w0, #0x4
  400a80:	54fffe80 	b.eq	400a50 <xioctl+0x14>
  400a84:	b9402fa0 	ldr	w0, [x29,#44]
  400a88:	a8c37bfd 	ldp	x29, x30, [sp],#48
  400a8c:	d65f03c0 	ret

0000000000400a90 <open_device>:
  400a90:	a9be7bfd 	stp	x29, x30, [sp,#-32]!
  400a94:	910003fd 	mov	x29, sp
  400a98:	b0000000 	adrp	x0, 401000 <map_asw_buffer+0xb8>
  400a9c:	9121c000 	add	x0, x0, #0x870
  400aa0:	52800041 	mov	w1, #0x2                   	// #2
  400aa4:	97ffff47 	bl	4007c0 <open@plt>
  400aa8:	b9001fa0 	str	w0, [x29,#28]
  400aac:	52800022 	mov	w2, #0x1                   	// #1
  400ab0:	d2896741 	mov	x1, #0x4b3a                	// #19258
  400ab4:	b9401fa0 	ldr	w0, [x29,#28]
  400ab8:	97ffff76 	bl	400890 <ioctl@plt>
  400abc:	b0000000 	adrp	x0, 401000 <map_asw_buffer+0xb8>
  400ac0:	91220000 	add	x0, x0, #0x880
  400ac4:	52800002 	mov	w2, #0x0                   	// #0
  400ac8:	52800041 	mov	w1, #0x2                   	// #2
  400acc:	97ffff3d 	bl	4007c0 <open@plt>
  400ad0:	2a0003e1 	mov	w1, w0
  400ad4:	b0000080 	adrp	x0, 411000 <__FRAME_END__+0xf518>
  400ad8:	91366000 	add	x0, x0, #0xd98
  400adc:	b9000001 	str	w1, [x0]
  400ae0:	b0000080 	adrp	x0, 411000 <__FRAME_END__+0xf518>
  400ae4:	91366000 	add	x0, x0, #0xd98
  400ae8:	b9400000 	ldr	w0, [x0]
  400aec:	3100041f 	cmn	w0, #0x1
  400af0:	540000c1 	b.ne	400b08 <open_device+0x78>
  400af4:	b0000000 	adrp	x0, 401000 <map_asw_buffer+0xb8>
  400af8:	91224000 	add	x0, x0, #0x890
  400afc:	97ffff49 	bl	400820 <puts@plt>
  400b00:	52800020 	mov	w0, #0x1                   	// #1
  400b04:	97ffff27 	bl	4007a0 <exit@plt>
  400b08:	b0000000 	adrp	x0, 401000 <map_asw_buffer+0xb8>
  400b0c:	9122a000 	add	x0, x0, #0x8a8
  400b10:	52800041 	mov	w1, #0x2                   	// #2
  400b14:	97ffff2b 	bl	4007c0 <open@plt>
  400b18:	2a0003e1 	mov	w1, w0
  400b1c:	b0000080 	adrp	x0, 411000 <__FRAME_END__+0xf518>
  400b20:	9136c000 	add	x0, x0, #0xdb0
  400b24:	b9000001 	str	w1, [x0]
  400b28:	b0000080 	adrp	x0, 411000 <__FRAME_END__+0xf518>
  400b2c:	9136c000 	add	x0, x0, #0xdb0
  400b30:	b9400000 	ldr	w0, [x0]
  400b34:	6b1f001f 	cmp	w0, wzr
  400b38:	540000ca 	b.ge	400b50 <open_device+0xc0>
  400b3c:	b0000000 	adrp	x0, 401000 <map_asw_buffer+0xb8>
  400b40:	9122e000 	add	x0, x0, #0x8b8
  400b44:	97ffff47 	bl	400860 <printf@plt>
  400b48:	52800020 	mov	w0, #0x1                   	// #1
  400b4c:	97ffff15 	bl	4007a0 <exit@plt>
  400b50:	b0000080 	adrp	x0, 411000 <__FRAME_END__+0xf518>
  400b54:	9136c000 	add	x0, x0, #0xdb0
  400b58:	b9400003 	ldr	w3, [x0]
  400b5c:	b0000080 	adrp	x0, 411000 <__FRAME_END__+0xf518>
  400b60:	913a0000 	add	x0, x0, #0xe80
  400b64:	aa0003e2 	mov	x2, x0
  400b68:	d288c041 	mov	x1, #0x4602                	// #17922
  400b6c:	2a0303e0 	mov	w0, w3
  400b70:	97ffff48 	bl	400890 <ioctl@plt>
  400b74:	6b1f001f 	cmp	w0, wzr
  400b78:	540000c0 	b.eq	400b90 <open_device+0x100>
  400b7c:	b0000000 	adrp	x0, 401000 <map_asw_buffer+0xb8>
  400b80:	9123a000 	add	x0, x0, #0x8e8
  400b84:	97ffff37 	bl	400860 <printf@plt>
  400b88:	52800040 	mov	w0, #0x2                   	// #2
  400b8c:	97ffff05 	bl	4007a0 <exit@plt>
  400b90:	b0000080 	adrp	x0, 411000 <__FRAME_END__+0xf518>
  400b94:	9136c000 	add	x0, x0, #0xdb0
  400b98:	b9400003 	ldr	w3, [x0]
  400b9c:	b0000080 	adrp	x0, 411000 <__FRAME_END__+0xf518>
  400ba0:	91378000 	add	x0, x0, #0xde0
  400ba4:	aa0003e2 	mov	x2, x0
  400ba8:	d288c001 	mov	x1, #0x4600                	// #17920
  400bac:	2a0303e0 	mov	w0, w3
  400bb0:	97ffff38 	bl	400890 <ioctl@plt>
  400bb4:	6b1f001f 	cmp	w0, wzr
  400bb8:	540000c0 	b.eq	400bd0 <open_device+0x140>
  400bbc:	b0000000 	adrp	x0, 401000 <map_asw_buffer+0xb8>
  400bc0:	91244000 	add	x0, x0, #0x910
  400bc4:	97ffff27 	bl	400860 <printf@plt>
  400bc8:	52800060 	mov	w0, #0x3                   	// #3
  400bcc:	97fffef5 	bl	4007a0 <exit@plt>
  400bd0:	b0000080 	adrp	x0, 411000 <__FRAME_END__+0xf518>
  400bd4:	91378000 	add	x0, x0, #0xde0
  400bd8:	b9400001 	ldr	w1, [x0]
  400bdc:	b0000080 	adrp	x0, 411000 <__FRAME_END__+0xf518>
  400be0:	91378000 	add	x0, x0, #0xde0
  400be4:	b9400400 	ldr	w0, [x0,#4]
  400be8:	1b007c21 	mul	w1, w1, w0
  400bec:	b0000080 	adrp	x0, 411000 <__FRAME_END__+0xf518>
  400bf0:	91378000 	add	x0, x0, #0xde0
  400bf4:	b9401800 	ldr	w0, [x0,#24]
  400bf8:	1b007c20 	mul	w0, w1, w0
  400bfc:	53037c00 	lsr	w0, w0, #3
  400c00:	2a0003e1 	mov	w1, w0
  400c04:	b0000080 	adrp	x0, 411000 <__FRAME_END__+0xf518>
  400c08:	91370000 	add	x0, x0, #0xdc0
  400c0c:	f9000001 	str	x1, [x0]
  400c10:	b0000080 	adrp	x0, 411000 <__FRAME_END__+0xf518>
  400c14:	91370000 	add	x0, x0, #0xdc0
  400c18:	f9400000 	ldr	x0, [x0]
  400c1c:	aa0003e1 	mov	x1, x0
  400c20:	b0000080 	adrp	x0, 411000 <__FRAME_END__+0xf518>
  400c24:	9136c000 	add	x0, x0, #0xdb0
  400c28:	b9400000 	ldr	w0, [x0]
  400c2c:	d2800005 	mov	x5, #0x0                   	// #0
  400c30:	2a0003e4 	mov	w4, w0
  400c34:	52800023 	mov	w3, #0x1                   	// #1
  400c38:	52800062 	mov	w2, #0x3                   	// #3
  400c3c:	d2800000 	mov	x0, #0x0                   	// #0
  400c40:	97fffefc 	bl	400830 <mmap@plt>
  400c44:	aa0003e1 	mov	x1, x0
  400c48:	b0000080 	adrp	x0, 411000 <__FRAME_END__+0xf518>
  400c4c:	9136e000 	add	x0, x0, #0xdb8
  400c50:	f9000001 	str	x1, [x0]
  400c54:	b0000080 	adrp	x0, 411000 <__FRAME_END__+0xf518>
  400c58:	9136e000 	add	x0, x0, #0xdb8
  400c5c:	f9400000 	ldr	x0, [x0]
  400c60:	3100041f 	cmn	w0, #0x1
  400c64:	540000c1 	b.ne	400c7c <open_device+0x1ec>
  400c68:	b0000000 	adrp	x0, 401000 <map_asw_buffer+0xb8>
  400c6c:	9124e000 	add	x0, x0, #0x938
  400c70:	97fffefc 	bl	400860 <printf@plt>
  400c74:	52800080 	mov	w0, #0x4                   	// #4
  400c78:	97fffeca 	bl	4007a0 <exit@plt>
  400c7c:	d503201f 	nop
  400c80:	a8c27bfd 	ldp	x29, x30, [sp],#32
  400c84:	d65f03c0 	ret

0000000000400c88 <get_device_capability>:
  400c88:	a9b87bfd 	stp	x29, x30, [sp,#-128]!
  400c8c:	910003fd 	mov	x29, sp
  400c90:	b0000080 	adrp	x0, 411000 <__FRAME_END__+0xf518>
  400c94:	91366000 	add	x0, x0, #0xd98
  400c98:	b9400000 	ldr	w0, [x0]
  400c9c:	910063a1 	add	x1, x29, #0x18
  400ca0:	aa0103e2 	mov	x2, x1
  400ca4:	528ac001 	mov	w1, #0x5600                	// #22016
  400ca8:	72b00d01 	movk	w1, #0x8068, lsl #16
  400cac:	97ffff64 	bl	400a3c <xioctl>
  400cb0:	3100041f 	cmn	w0, #0x1
  400cb4:	540002c1 	b.ne	400d0c <get_device_capability+0x84>
  400cb8:	97fffeee 	bl	400870 <__errno_location@plt>
  400cbc:	b9400000 	ldr	w0, [x0]
  400cc0:	7100581f 	cmp	w0, #0x16
  400cc4:	540001e1 	b.ne	400d00 <get_device_capability+0x78>
  400cc8:	b0000080 	adrp	x0, 411000 <__FRAME_END__+0xf518>
  400ccc:	91368000 	add	x0, x0, #0xda0
  400cd0:	f9400003 	ldr	x3, [x0]
  400cd4:	b0000080 	adrp	x0, 411000 <__FRAME_END__+0xf518>
  400cd8:	91372000 	add	x0, x0, #0xdc8
  400cdc:	f9400001 	ldr	x1, [x0]
  400ce0:	b0000000 	adrp	x0, 401000 <map_asw_buffer+0xb8>
  400ce4:	9125c000 	add	x0, x0, #0x970
  400ce8:	aa0103e2 	mov	x2, x1
  400cec:	aa0003e1 	mov	x1, x0
  400cf0:	aa0303e0 	mov	x0, x3
  400cf4:	97fffee3 	bl	400880 <fprintf@plt>
  400cf8:	52800020 	mov	w0, #0x1                   	// #1
  400cfc:	97fffea9 	bl	4007a0 <exit@plt>
  400d00:	b0000000 	adrp	x0, 401000 <map_asw_buffer+0xb8>
  400d04:	91262000 	add	x0, x0, #0x988
  400d08:	97ffff36 	bl	4009e0 <errno_exit>
  400d0c:	b9406fa0 	ldr	w0, [x29,#108]
  400d10:	12000000 	and	w0, w0, #0x1
  400d14:	6b1f001f 	cmp	w0, wzr
  400d18:	540001e1 	b.ne	400d54 <get_device_capability+0xcc>
  400d1c:	b0000080 	adrp	x0, 411000 <__FRAME_END__+0xf518>
  400d20:	91368000 	add	x0, x0, #0xda0
  400d24:	f9400003 	ldr	x3, [x0]
  400d28:	b0000080 	adrp	x0, 411000 <__FRAME_END__+0xf518>
  400d2c:	91372000 	add	x0, x0, #0xdc8
  400d30:	f9400001 	ldr	x1, [x0]
  400d34:	b0000000 	adrp	x0, 401000 <map_asw_buffer+0xb8>
  400d38:	91266000 	add	x0, x0, #0x998
  400d3c:	aa0103e2 	mov	x2, x1
  400d40:	aa0003e1 	mov	x1, x0
  400d44:	aa0303e0 	mov	x0, x3
  400d48:	97fffece 	bl	400880 <fprintf@plt>
  400d4c:	52800020 	mov	w0, #0x1                   	// #1
  400d50:	97fffe94 	bl	4007a0 <exit@plt>
  400d54:	b9406fa0 	ldr	w0, [x29,#108]
  400d58:	12060000 	and	w0, w0, #0x4000000
  400d5c:	6b1f001f 	cmp	w0, wzr
  400d60:	540001e1 	b.ne	400d9c <get_device_capability+0x114>
  400d64:	b0000080 	adrp	x0, 411000 <__FRAME_END__+0xf518>
  400d68:	91368000 	add	x0, x0, #0xda0
  400d6c:	f9400003 	ldr	x3, [x0]
  400d70:	b0000080 	adrp	x0, 411000 <__FRAME_END__+0xf518>
  400d74:	91372000 	add	x0, x0, #0xdc8
  400d78:	f9400001 	ldr	x1, [x0]
  400d7c:	b0000000 	adrp	x0, 401000 <map_asw_buffer+0xb8>
  400d80:	9126e000 	add	x0, x0, #0x9b8
  400d84:	aa0103e2 	mov	x2, x1
  400d88:	aa0003e1 	mov	x1, x0
  400d8c:	aa0303e0 	mov	x0, x3
  400d90:	97fffebc 	bl	400880 <fprintf@plt>
  400d94:	52800020 	mov	w0, #0x1                   	// #1
  400d98:	97fffe82 	bl	4007a0 <exit@plt>
  400d9c:	d503201f 	nop
  400da0:	a8c87bfd 	ldp	x29, x30, [sp],#128
  400da4:	d65f03c0 	ret

0000000000400da8 <set_attribute>:
  400da8:	a9b17bfd 	stp	x29, x30, [sp,#-240]!
  400dac:	910003fd 	mov	x29, sp
  400db0:	52800020 	mov	w0, #0x1                   	// #1
  400db4:	b9001ba0 	str	w0, [x29,#24]
  400db8:	52805000 	mov	w0, #0x280                 	// #640
  400dbc:	b90023a0 	str	w0, [x29,#32]
  400dc0:	52803c00 	mov	w0, #0x1e0                 	// #480
  400dc4:	b90027a0 	str	w0, [x29,#36]
  400dc8:	528aab20 	mov	w0, #0x5559                	// #21849
  400dcc:	72aacb20 	movk	w0, #0x5659, lsl #16
  400dd0:	b9002ba0 	str	w0, [x29,#40]
  400dd4:	52800080 	mov	w0, #0x4                   	// #4
  400dd8:	b9002fa0 	str	w0, [x29,#44]
  400ddc:	b0000080 	adrp	x0, 411000 <__FRAME_END__+0xf518>
  400de0:	91366000 	add	x0, x0, #0xd98
  400de4:	b9400000 	ldr	w0, [x0]
  400de8:	910063a1 	add	x1, x29, #0x18
  400dec:	aa0103e2 	mov	x2, x1
  400df0:	528ac0a1 	mov	w1, #0x5605                	// #22021
  400df4:	72b81a01 	movk	w1, #0xc0d0, lsl #16
  400df8:	97ffff11 	bl	400a3c <xioctl>
  400dfc:	3100041f 	cmn	w0, #0x1
  400e00:	54000081 	b.ne	400e10 <set_attribute+0x68>
  400e04:	b0000000 	adrp	x0, 401000 <map_asw_buffer+0xb8>
  400e08:	91278000 	add	x0, x0, #0x9e0
  400e0c:	97fffef5 	bl	4009e0 <errno_exit>
  400e10:	b94023a0 	ldr	w0, [x29,#32]
  400e14:	531f7800 	lsl	w0, w0, #1
  400e18:	b900efa0 	str	w0, [x29,#236]
  400e1c:	b94033a1 	ldr	w1, [x29,#48]
  400e20:	b0000000 	adrp	x0, 401000 <map_asw_buffer+0xb8>
  400e24:	9127c000 	add	x0, x0, #0x9f0
  400e28:	b940efa2 	ldr	w2, [x29,#236]
  400e2c:	97fffe8d 	bl	400860 <printf@plt>
  400e30:	b94033a1 	ldr	w1, [x29,#48]
  400e34:	b940efa0 	ldr	w0, [x29,#236]
  400e38:	6b00003f 	cmp	w1, w0
  400e3c:	54000062 	b.cs	400e48 <set_attribute+0xa0>
  400e40:	b940efa0 	ldr	w0, [x29,#236]
  400e44:	b90033a0 	str	w0, [x29,#48]
  400e48:	b94033a1 	ldr	w1, [x29,#48]
  400e4c:	b94027a0 	ldr	w0, [x29,#36]
  400e50:	1b007c20 	mul	w0, w1, w0
  400e54:	b900efa0 	str	w0, [x29,#236]
  400e58:	b94037a1 	ldr	w1, [x29,#52]
  400e5c:	b0000000 	adrp	x0, 401000 <map_asw_buffer+0xb8>
  400e60:	91284000 	add	x0, x0, #0xa10
  400e64:	b940efa2 	ldr	w2, [x29,#236]
  400e68:	97fffe7e 	bl	400860 <printf@plt>
  400e6c:	b94037a1 	ldr	w1, [x29,#52]
  400e70:	b940efa0 	ldr	w0, [x29,#236]
  400e74:	6b00003f 	cmp	w1, w0
  400e78:	54000062 	b.cs	400e84 <set_attribute+0xdc>
  400e7c:	b940efa0 	ldr	w0, [x29,#236]
  400e80:	b90037a0 	str	w0, [x29,#52]
  400e84:	d503201f 	nop
  400e88:	a8cf7bfd 	ldp	x29, x30, [sp],#240
  400e8c:	d65f03c0 	ret

0000000000400e90 <request_buffer>:
  400e90:	a9bd7bfd 	stp	x29, x30, [sp,#-48]!
  400e94:	910003fd 	mov	x29, sp
  400e98:	52800080 	mov	w0, #0x4                   	// #4
  400e9c:	b9001ba0 	str	w0, [x29,#24]
  400ea0:	52800020 	mov	w0, #0x1                   	// #1
  400ea4:	b9001fa0 	str	w0, [x29,#28]
  400ea8:	52800020 	mov	w0, #0x1                   	// #1
  400eac:	b90023a0 	str	w0, [x29,#32]
  400eb0:	b0000080 	adrp	x0, 411000 <__FRAME_END__+0xf518>
  400eb4:	91366000 	add	x0, x0, #0xd98
  400eb8:	b9400000 	ldr	w0, [x0]
  400ebc:	910063a1 	add	x1, x29, #0x18
  400ec0:	aa0103e2 	mov	x2, x1
  400ec4:	528ac101 	mov	w1, #0x5608                	// #22024
  400ec8:	72b80281 	movk	w1, #0xc014, lsl #16
  400ecc:	97fffedc 	bl	400a3c <xioctl>
  400ed0:	3100041f 	cmn	w0, #0x1
  400ed4:	540002c1 	b.ne	400f2c <request_buffer+0x9c>
  400ed8:	97fffe66 	bl	400870 <__errno_location@plt>
  400edc:	b9400000 	ldr	w0, [x0]
  400ee0:	7100581f 	cmp	w0, #0x16
  400ee4:	540001e1 	b.ne	400f20 <request_buffer+0x90>
  400ee8:	b0000080 	adrp	x0, 411000 <__FRAME_END__+0xf518>
  400eec:	91368000 	add	x0, x0, #0xda0
  400ef0:	f9400003 	ldr	x3, [x0]
  400ef4:	b0000080 	adrp	x0, 411000 <__FRAME_END__+0xf518>
  400ef8:	91372000 	add	x0, x0, #0xdc8
  400efc:	f9400001 	ldr	x1, [x0]
  400f00:	b0000000 	adrp	x0, 401000 <map_asw_buffer+0xb8>
  400f04:	9128e000 	add	x0, x0, #0xa38
  400f08:	aa0103e2 	mov	x2, x1
  400f0c:	aa0003e1 	mov	x1, x0
  400f10:	aa0303e0 	mov	x0, x3
  400f14:	97fffe5b 	bl	400880 <fprintf@plt>
  400f18:	52800020 	mov	w0, #0x1                   	// #1
  400f1c:	97fffe21 	bl	4007a0 <exit@plt>
  400f20:	b0000000 	adrp	x0, 401000 <map_asw_buffer+0xb8>
  400f24:	91298000 	add	x0, x0, #0xa60
  400f28:	97fffeae 	bl	4009e0 <errno_exit>
  400f2c:	b9401ba1 	ldr	w1, [x29,#24]
  400f30:	b0000000 	adrp	x0, 401000 <map_asw_buffer+0xb8>
  400f34:	9129c000 	add	x0, x0, #0xa70
  400f38:	97fffe4a 	bl	400860 <printf@plt>
  400f3c:	d503201f 	nop
  400f40:	a8c37bfd 	ldp	x29, x30, [sp],#48
  400f44:	d65f03c0 	ret

0000000000400f48 <map_asw_buffer>:
  400f48:	a9b87bfd 	stp	x29, x30, [sp,#-128]!
  400f4c:	910003fd 	mov	x29, sp
  400f50:	f9000bf3 	str	x19, [sp,#16]
  400f54:	52800020 	mov	w0, #0x1                   	// #1
  400f58:	b9002fa0 	str	w0, [x29,#44]
  400f5c:	52800020 	mov	w0, #0x1                   	// #1
  400f60:	b90067a0 	str	w0, [x29,#100]
  400f64:	b0000080 	adrp	x0, 411000 <__FRAME_END__+0xf518>
  400f68:	91374000 	add	x0, x0, #0xdd0
  400f6c:	b900001f 	str	wzr, [x0]
  400f70:	14000033 	b	40103c <map_asw_buffer+0xf4>
  400f74:	b0000080 	adrp	x0, 411000 <__FRAME_END__+0xf518>
  400f78:	91374000 	add	x0, x0, #0xdd0
  400f7c:	b9400000 	ldr	w0, [x0]
  400f80:	b9002ba0 	str	w0, [x29,#40]
  400f84:	b0000080 	adrp	x0, 411000 <__FRAME_END__+0xf518>
  400f88:	91366000 	add	x0, x0, #0xd98
  400f8c:	b9400000 	ldr	w0, [x0]
  400f90:	9100a3a1 	add	x1, x29, #0x28
  400f94:	aa0103e2 	mov	x2, x1
  400f98:	528ac121 	mov	w1, #0x5609                	// #22025
  400f9c:	72b80b01 	movk	w1, #0xc058, lsl #16
  400fa0:	97fffea7 	bl	400a3c <xioctl>
  400fa4:	3100041f 	cmn	w0, #0x1
  400fa8:	54000081 	b.ne	400fb8 <map_asw_buffer+0x70>
  400fac:	b0000000 	adrp	x0, 401000 <map_asw_buffer+0xb8>
  400fb0:	912a2000 	add	x0, x0, #0xa88
  400fb4:	97fffe8b 	bl	4009e0 <errno_exit>
  400fb8:	b94073a0 	ldr	w0, [x29,#112]
  400fbc:	2a0003e1 	mov	w1, w0
  400fc0:	b0000080 	adrp	x0, 411000 <__FRAME_END__+0xf518>
  400fc4:	91376000 	add	x0, x0, #0xdd8
  400fc8:	b9000001 	str	w1, [x0]
  400fcc:	b0000080 	adrp	x0, 411000 <__FRAME_END__+0xf518>
  400fd0:	91374000 	add	x0, x0, #0xdd0
  400fd4:	b9400013 	ldr	w19, [x0]
  400fd8:	b94073a0 	ldr	w0, [x29,#112]
  400fdc:	2a0003e1 	mov	w1, w0
  400fe0:	b0000080 	adrp	x0, 411000 <__FRAME_END__+0xf518>
  400fe4:	91366000 	add	x0, x0, #0xd98
  400fe8:	b9400000 	ldr	w0, [x0]
  400fec:	b9406ba2 	ldr	w2, [x29,#104]
  400ff0:	2a0203e2 	mov	w2, w2
  400ff4:	aa0203e5 	mov	x5, x2
  400ff8:	2a0003e4 	mov	w4, w0
  400ffc:	52800023 	mov	w3, #0x1                   	// #1
  401000:	52800062 	mov	w2, #0x3                   	// #3
  401004:	d2800000 	mov	x0, #0x0                   	// #0
  401008:	97fffe0a 	bl	400830 <mmap@plt>
  40100c:	aa0003e2 	mov	x2, x0
  401010:	90000080 	adrp	x0, 411000 <__FRAME_END__+0xf518>
  401014:	913ca000 	add	x0, x0, #0xf28
  401018:	2a1303e1 	mov	w1, w19
  40101c:	f8217802 	str	x2, [x0,x1,lsl #3]
  401020:	90000080 	adrp	x0, 411000 <__FRAME_END__+0xf518>
  401024:	91374000 	add	x0, x0, #0xdd0
  401028:	b9400000 	ldr	w0, [x0]
  40102c:	11000401 	add	w1, w0, #0x1
  401030:	90000080 	adrp	x0, 411000 <__FRAME_END__+0xf518>
  401034:	91374000 	add	x0, x0, #0xdd0
  401038:	b9000001 	str	w1, [x0]
  40103c:	90000080 	adrp	x0, 411000 <__FRAME_END__+0xf518>
  401040:	91374000 	add	x0, x0, #0xdd0
  401044:	b9400000 	ldr	w0, [x0]
  401048:	71000c1f 	cmp	w0, #0x3
  40104c:	54fff949 	b.ls	400f74 <map_asw_buffer+0x2c>
  401050:	d503201f 	nop
  401054:	f9400bf3 	ldr	x19, [sp,#16]
  401058:	a8c87bfd 	ldp	x29, x30, [sp],#128
  40105c:	d65f03c0 	ret

0000000000401060 <add_buffer_queue>:
  401060:	a9b97bfd 	stp	x29, x30, [sp,#-112]!
  401064:	910003fd 	mov	x29, sp
  401068:	b9006fbf 	str	wzr, [x29,#108]
  40106c:	14000017 	b	4010c8 <add_buffer_queue+0x68>
  401070:	52800020 	mov	w0, #0x1                   	// #1
  401074:	b90017a0 	str	w0, [x29,#20]
  401078:	52800020 	mov	w0, #0x1                   	// #1
  40107c:	b9004fa0 	str	w0, [x29,#76]
  401080:	b9406fa0 	ldr	w0, [x29,#108]
  401084:	b90013a0 	str	w0, [x29,#16]
  401088:	90000080 	adrp	x0, 411000 <__FRAME_END__+0xf518>
  40108c:	91366000 	add	x0, x0, #0xd98
  401090:	b9400000 	ldr	w0, [x0]
  401094:	910043a1 	add	x1, x29, #0x10
  401098:	aa0103e2 	mov	x2, x1
  40109c:	528ac1e1 	mov	w1, #0x560f                	// #22031
  4010a0:	72b80b01 	movk	w1, #0xc058, lsl #16
  4010a4:	97fffe66 	bl	400a3c <xioctl>
  4010a8:	3100041f 	cmn	w0, #0x1
  4010ac:	54000081 	b.ne	4010bc <add_buffer_queue+0x5c>
  4010b0:	90000000 	adrp	x0, 401000 <map_asw_buffer+0xb8>
  4010b4:	912a6000 	add	x0, x0, #0xa98
  4010b8:	97fffe4a 	bl	4009e0 <errno_exit>
  4010bc:	b9406fa0 	ldr	w0, [x29,#108]
  4010c0:	11000400 	add	w0, w0, #0x1
  4010c4:	b9006fa0 	str	w0, [x29,#108]
  4010c8:	90000080 	adrp	x0, 411000 <__FRAME_END__+0xf518>
  4010cc:	91374000 	add	x0, x0, #0xdd0
  4010d0:	b9400000 	ldr	w0, [x0]
  4010d4:	b9406fa1 	ldr	w1, [x29,#108]
  4010d8:	6b00003f 	cmp	w1, w0
  4010dc:	54fffca3 	b.cc	401070 <add_buffer_queue+0x10>
  4010e0:	d503201f 	nop
  4010e4:	a8c77bfd 	ldp	x29, x30, [sp],#112
  4010e8:	d65f03c0 	ret

00000000004010ec <start_stream>:
  4010ec:	a9be7bfd 	stp	x29, x30, [sp,#-32]!
  4010f0:	910003fd 	mov	x29, sp
  4010f4:	52800020 	mov	w0, #0x1                   	// #1
  4010f8:	b9001fa0 	str	w0, [x29,#28]
  4010fc:	90000080 	adrp	x0, 411000 <__FRAME_END__+0xf518>
  401100:	91366000 	add	x0, x0, #0xd98
  401104:	b9400000 	ldr	w0, [x0]
  401108:	910073a1 	add	x1, x29, #0x1c
  40110c:	aa0103e2 	mov	x2, x1
  401110:	528ac241 	mov	w1, #0x5612                	// #22034
  401114:	72a80081 	movk	w1, #0x4004, lsl #16
  401118:	97fffe49 	bl	400a3c <xioctl>
  40111c:	3100041f 	cmn	w0, #0x1
  401120:	54000081 	b.ne	401130 <start_stream+0x44>
  401124:	90000000 	adrp	x0, 401000 <map_asw_buffer+0xb8>
  401128:	912aa000 	add	x0, x0, #0xaa8
  40112c:	97fffe2d 	bl	4009e0 <errno_exit>
  401130:	d503201f 	nop
  401134:	a8c27bfd 	ldp	x29, x30, [sp],#32
  401138:	d65f03c0 	ret

000000000040113c <process_image>:
  40113c:	a9bb7bfd 	stp	x29, x30, [sp,#-80]!
  401140:	910003fd 	mov	x29, sp
  401144:	f9000fa0 	str	x0, [x29,#24]
  401148:	f9400fa0 	ldr	x0, [x29,#24]
  40114c:	39400000 	ldrb	w0, [x0]
  401150:	53001c00 	uxtb	w0, w0
  401154:	f9001ba0 	str	x0, [x29,#48]
  401158:	b9004fbf 	str	wzr, [x29,#76]
  40115c:	140000f2 	b	401524 <process_image+0x3e8>
  401160:	b9004bbf 	str	wzr, [x29,#72]
  401164:	140000ea 	b	40150c <process_image+0x3d0>
  401168:	b9404ba0 	ldr	w0, [x29,#72]
  40116c:	12000000 	and	w0, w0, #0x1
  401170:	6b1f001f 	cmp	w0, wzr
  401174:	540005c0 	b.eq	40122c <process_image+0xf0>
  401178:	b9404fa0 	ldr	w0, [x29,#76]
  40117c:	53185c00 	lsl	w0, w0, #8
  401180:	531e7401 	lsl	w1, w0, #2
  401184:	0b010000 	add	w0, w0, w1
  401188:	93407c01 	sxtw	x1, w0
  40118c:	b9404ba0 	ldr	w0, [x29,#72]
  401190:	531f7800 	lsl	w0, w0, #1
  401194:	93407c00 	sxtw	x0, w0
  401198:	8b000020 	add	x0, x1, x0
  40119c:	f9401ba1 	ldr	x1, [x29,#48]
  4011a0:	8b000020 	add	x0, x1, x0
  4011a4:	39400000 	ldrb	w0, [x0]
  4011a8:	51004000 	sub	w0, w0, #0x10
  4011ac:	b90047a0 	str	w0, [x29,#68]
  4011b0:	b9404fa0 	ldr	w0, [x29,#76]
  4011b4:	53185c00 	lsl	w0, w0, #8
  4011b8:	531e7401 	lsl	w1, w0, #2
  4011bc:	0b010000 	add	w0, w0, w1
  4011c0:	93407c01 	sxtw	x1, w0
  4011c4:	b9404ba0 	ldr	w0, [x29,#72]
  4011c8:	531f7800 	lsl	w0, w0, #1
  4011cc:	93407c00 	sxtw	x0, w0
  4011d0:	8b000020 	add	x0, x1, x0
  4011d4:	d1000400 	sub	x0, x0, #0x1
  4011d8:	f9401ba1 	ldr	x1, [x29,#48]
  4011dc:	8b000020 	add	x0, x1, x0
  4011e0:	39400000 	ldrb	w0, [x0]
  4011e4:	51020000 	sub	w0, w0, #0x80
  4011e8:	b90043a0 	str	w0, [x29,#64]
  4011ec:	b9404fa0 	ldr	w0, [x29,#76]
  4011f0:	53185c00 	lsl	w0, w0, #8
  4011f4:	531e7401 	lsl	w1, w0, #2
  4011f8:	0b010000 	add	w0, w0, w1
  4011fc:	93407c01 	sxtw	x1, w0
  401200:	b9404ba0 	ldr	w0, [x29,#72]
  401204:	531f7800 	lsl	w0, w0, #1
  401208:	93407c00 	sxtw	x0, w0
  40120c:	8b000020 	add	x0, x1, x0
  401210:	91000400 	add	x0, x0, #0x1
  401214:	f9401ba1 	ldr	x1, [x29,#48]
  401218:	8b000020 	add	x0, x1, x0
  40121c:	39400000 	ldrb	w0, [x0]
  401220:	51020000 	sub	w0, w0, #0x80
  401224:	b9003fa0 	str	w0, [x29,#60]
  401228:	1400002d 	b	4012dc <process_image+0x1a0>
  40122c:	b9404fa0 	ldr	w0, [x29,#76]
  401230:	53185c00 	lsl	w0, w0, #8
  401234:	531e7401 	lsl	w1, w0, #2
  401238:	0b010000 	add	w0, w0, w1
  40123c:	93407c01 	sxtw	x1, w0
  401240:	b9404ba0 	ldr	w0, [x29,#72]
  401244:	531f7800 	lsl	w0, w0, #1
  401248:	93407c00 	sxtw	x0, w0
  40124c:	8b000020 	add	x0, x1, x0
  401250:	f9401ba1 	ldr	x1, [x29,#48]
  401254:	8b000020 	add	x0, x1, x0
  401258:	39400000 	ldrb	w0, [x0]
  40125c:	51004000 	sub	w0, w0, #0x10
  401260:	b90047a0 	str	w0, [x29,#68]
  401264:	b9404fa0 	ldr	w0, [x29,#76]
  401268:	53185c00 	lsl	w0, w0, #8
  40126c:	531e7401 	lsl	w1, w0, #2
  401270:	0b010000 	add	w0, w0, w1
  401274:	93407c01 	sxtw	x1, w0
  401278:	b9404ba0 	ldr	w0, [x29,#72]
  40127c:	531f7800 	lsl	w0, w0, #1
  401280:	93407c00 	sxtw	x0, w0
  401284:	8b000020 	add	x0, x1, x0
  401288:	91000400 	add	x0, x0, #0x1
  40128c:	f9401ba1 	ldr	x1, [x29,#48]
  401290:	8b000020 	add	x0, x1, x0
  401294:	39400000 	ldrb	w0, [x0]
  401298:	51020000 	sub	w0, w0, #0x80
  40129c:	b90043a0 	str	w0, [x29,#64]
  4012a0:	b9404fa0 	ldr	w0, [x29,#76]
  4012a4:	53185c00 	lsl	w0, w0, #8
  4012a8:	531e7401 	lsl	w1, w0, #2
  4012ac:	0b010000 	add	w0, w0, w1
  4012b0:	93407c01 	sxtw	x1, w0
  4012b4:	b9404ba0 	ldr	w0, [x29,#72]
  4012b8:	531f7800 	lsl	w0, w0, #1
  4012bc:	93407c00 	sxtw	x0, w0
  4012c0:	8b000020 	add	x0, x1, x0
  4012c4:	91000c00 	add	x0, x0, #0x3
  4012c8:	f9401ba1 	ldr	x1, [x29,#48]
  4012cc:	8b000020 	add	x0, x1, x0
  4012d0:	39400000 	ldrb	w0, [x0]
  4012d4:	51020000 	sub	w0, w0, #0x80
  4012d8:	b9003fa0 	str	w0, [x29,#60]
  4012dc:	b94047a1 	ldr	w1, [x29,#68]
  4012e0:	52802540 	mov	w0, #0x12a                 	// #298
  4012e4:	1b007c21 	mul	w1, w1, w0
  4012e8:	b9403fa2 	ldr	w2, [x29,#60]
  4012ec:	52803320 	mov	w0, #0x199                 	// #409
  4012f0:	1b007c40 	mul	w0, w2, w0
  4012f4:	0b000020 	add	w0, w1, w0
  4012f8:	11020000 	add	w0, w0, #0x80
  4012fc:	13087c00 	asr	w0, w0, #8
  401300:	b9002fa0 	str	w0, [x29,#44]
  401304:	b94047a1 	ldr	w1, [x29,#68]
  401308:	52802540 	mov	w0, #0x12a                 	// #298
  40130c:	1b007c21 	mul	w1, w1, w0
  401310:	b94043a2 	ldr	w2, [x29,#64]
  401314:	12800c60 	mov	w0, #0xffffff9c            	// #-100
  401318:	1b007c40 	mul	w0, w2, w0
  40131c:	0b000021 	add	w1, w1, w0
  401320:	b9403fa2 	ldr	w2, [x29,#60]
  401324:	128019e0 	mov	w0, #0xffffff30            	// #-208
  401328:	1b007c40 	mul	w0, w2, w0
  40132c:	0b000020 	add	w0, w1, w0
  401330:	11020000 	add	w0, w0, #0x80
  401334:	13087c00 	asr	w0, w0, #8
  401338:	b9002ba0 	str	w0, [x29,#40]
  40133c:	b94047a1 	ldr	w1, [x29,#68]
  401340:	52802540 	mov	w0, #0x12a                 	// #298
  401344:	1b007c21 	mul	w1, w1, w0
  401348:	b94043a0 	ldr	w0, [x29,#64]
  40134c:	531e7400 	lsl	w0, w0, #2
  401350:	53196002 	lsl	w2, w0, #7
  401354:	0b020000 	add	w0, w0, w2
  401358:	0b000020 	add	w0, w1, w0
  40135c:	11020000 	add	w0, w0, #0x80
  401360:	13087c00 	asr	w0, w0, #8
  401364:	b90027a0 	str	w0, [x29,#36]
  401368:	b94027a0 	ldr	w0, [x29,#36]
  40136c:	7103fc1f 	cmp	w0, #0xff
  401370:	540000ec 	b.gt	40138c <process_image+0x250>
  401374:	b94027a1 	ldr	w1, [x29,#36]
  401378:	b94027a0 	ldr	w0, [x29,#36]
  40137c:	52800002 	mov	w2, #0x0                   	// #0
  401380:	6b1f003f 	cmp	w1, wzr
  401384:	1a82a000 	csel	w0, w0, w2, ge
  401388:	14000002 	b	401390 <process_image+0x254>
  40138c:	52801fe0 	mov	w0, #0xff                  	// #255
  401390:	b90027a0 	str	w0, [x29,#36]
  401394:	b9402ba0 	ldr	w0, [x29,#40]
  401398:	7103fc1f 	cmp	w0, #0xff
  40139c:	540000ec 	b.gt	4013b8 <process_image+0x27c>
  4013a0:	b9402ba1 	ldr	w1, [x29,#40]
  4013a4:	b9402ba0 	ldr	w0, [x29,#40]
  4013a8:	52800002 	mov	w2, #0x0                   	// #0
  4013ac:	6b1f003f 	cmp	w1, wzr
  4013b0:	1a82a000 	csel	w0, w0, w2, ge
  4013b4:	14000002 	b	4013bc <process_image+0x280>
  4013b8:	52801fe0 	mov	w0, #0xff                  	// #255
  4013bc:	b9002ba0 	str	w0, [x29,#40]
  4013c0:	b9402fa0 	ldr	w0, [x29,#44]
  4013c4:	7103fc1f 	cmp	w0, #0xff
  4013c8:	540000ec 	b.gt	4013e4 <process_image+0x2a8>
  4013cc:	b9402fa1 	ldr	w1, [x29,#44]
  4013d0:	b9402fa0 	ldr	w0, [x29,#44]
  4013d4:	52800002 	mov	w2, #0x0                   	// #0
  4013d8:	6b1f003f 	cmp	w1, wzr
  4013dc:	1a82a000 	csel	w0, w0, w2, ge
  4013e0:	14000002 	b	4013e8 <process_image+0x2ac>
  4013e4:	52801fe0 	mov	w0, #0xff                  	// #255
  4013e8:	b9002fa0 	str	w0, [x29,#44]
  4013ec:	90000080 	adrp	x0, 411000 <__FRAME_END__+0xf518>
  4013f0:	9136e000 	add	x0, x0, #0xdb8
  4013f4:	f9400001 	ldr	x1, [x0]
  4013f8:	90000080 	adrp	x0, 411000 <__FRAME_END__+0xf518>
  4013fc:	913a0000 	add	x0, x0, #0xe80
  401400:	b9403002 	ldr	w2, [x0,#48]
  401404:	b9404fa0 	ldr	w0, [x29,#76]
  401408:	1b007c40 	mul	w0, w2, w0
  40140c:	2a0003e2 	mov	w2, w0
  401410:	b9404ba0 	ldr	w0, [x29,#72]
  401414:	531e7400 	lsl	w0, w0, #2
  401418:	93407c00 	sxtw	x0, w0
  40141c:	8b000040 	add	x0, x2, x0
  401420:	8b000020 	add	x0, x1, x0
  401424:	b94027a1 	ldr	w1, [x29,#36]
  401428:	53001c21 	uxtb	w1, w1
  40142c:	39000001 	strb	w1, [x0]
  401430:	90000080 	adrp	x0, 411000 <__FRAME_END__+0xf518>
  401434:	9136e000 	add	x0, x0, #0xdb8
  401438:	f9400001 	ldr	x1, [x0]
  40143c:	90000080 	adrp	x0, 411000 <__FRAME_END__+0xf518>
  401440:	913a0000 	add	x0, x0, #0xe80
  401444:	b9403002 	ldr	w2, [x0,#48]
  401448:	b9404fa0 	ldr	w0, [x29,#76]
  40144c:	1b007c40 	mul	w0, w2, w0
  401450:	2a0003e2 	mov	w2, w0
  401454:	b9404ba0 	ldr	w0, [x29,#72]
  401458:	531e7400 	lsl	w0, w0, #2
  40145c:	93407c00 	sxtw	x0, w0
  401460:	8b000040 	add	x0, x2, x0
  401464:	91000400 	add	x0, x0, #0x1
  401468:	8b000020 	add	x0, x1, x0
  40146c:	b9402ba1 	ldr	w1, [x29,#40]
  401470:	53001c21 	uxtb	w1, w1
  401474:	39000001 	strb	w1, [x0]
  401478:	90000080 	adrp	x0, 411000 <__FRAME_END__+0xf518>
  40147c:	9136e000 	add	x0, x0, #0xdb8
  401480:	f9400001 	ldr	x1, [x0]
  401484:	90000080 	adrp	x0, 411000 <__FRAME_END__+0xf518>
  401488:	913a0000 	add	x0, x0, #0xe80
  40148c:	b9403002 	ldr	w2, [x0,#48]
  401490:	b9404fa0 	ldr	w0, [x29,#76]
  401494:	1b007c40 	mul	w0, w2, w0
  401498:	2a0003e2 	mov	w2, w0
  40149c:	b9404ba0 	ldr	w0, [x29,#72]
  4014a0:	531e7400 	lsl	w0, w0, #2
  4014a4:	93407c00 	sxtw	x0, w0
  4014a8:	8b000040 	add	x0, x2, x0
  4014ac:	91000800 	add	x0, x0, #0x2
  4014b0:	8b000020 	add	x0, x1, x0
  4014b4:	b9402fa1 	ldr	w1, [x29,#44]
  4014b8:	53001c21 	uxtb	w1, w1
  4014bc:	39000001 	strb	w1, [x0]
  4014c0:	90000080 	adrp	x0, 411000 <__FRAME_END__+0xf518>
  4014c4:	9136e000 	add	x0, x0, #0xdb8
  4014c8:	f9400001 	ldr	x1, [x0]
  4014cc:	90000080 	adrp	x0, 411000 <__FRAME_END__+0xf518>
  4014d0:	913a0000 	add	x0, x0, #0xe80
  4014d4:	b9403002 	ldr	w2, [x0,#48]
  4014d8:	b9404fa0 	ldr	w0, [x29,#76]
  4014dc:	1b007c40 	mul	w0, w2, w0
  4014e0:	2a0003e2 	mov	w2, w0
  4014e4:	b9404ba0 	ldr	w0, [x29,#72]
  4014e8:	531e7400 	lsl	w0, w0, #2
  4014ec:	93407c00 	sxtw	x0, w0
  4014f0:	8b000040 	add	x0, x2, x0
  4014f4:	91000c00 	add	x0, x0, #0x3
  4014f8:	8b000020 	add	x0, x1, x0
  4014fc:	3900001f 	strb	wzr, [x0]
  401500:	b9404ba0 	ldr	w0, [x29,#72]
  401504:	11000400 	add	w0, w0, #0x1
  401508:	b9004ba0 	str	w0, [x29,#72]
  40150c:	b9404ba0 	ldr	w0, [x29,#72]
  401510:	7109fc1f 	cmp	w0, #0x27f
  401514:	54ffe2ad 	b.le	401168 <process_image+0x2c>
  401518:	b9404fa0 	ldr	w0, [x29,#76]
  40151c:	11000400 	add	w0, w0, #0x1
  401520:	b9004fa0 	str	w0, [x29,#76]
  401524:	b9404fa0 	ldr	w0, [x29,#76]
  401528:	71077c1f 	cmp	w0, #0x1df
  40152c:	54ffe1ad 	b.le	401160 <process_image+0x24>
  401530:	52800c80 	mov	w0, #0x64                  	// #100
  401534:	97fffcc7 	bl	400850 <usleep@plt>
  401538:	d503201f 	nop
  40153c:	a8c57bfd 	ldp	x29, x30, [sp],#80
  401540:	d65f03c0 	ret

0000000000401544 <get_frame_from_queue>:
  401544:	a9be7bfd 	stp	x29, x30, [sp,#-32]!
  401548:	910003fd 	mov	x29, sp
  40154c:	f9000fa0 	str	x0, [x29,#24]
  401550:	90000080 	adrp	x0, 411000 <__FRAME_END__+0xf518>
  401554:	913d2000 	add	x0, x0, #0xf48
  401558:	52800021 	mov	w1, #0x1                   	// #1
  40155c:	b9000401 	str	w1, [x0,#4]
  401560:	90000080 	adrp	x0, 411000 <__FRAME_END__+0xf518>
  401564:	913b4000 	add	x0, x0, #0xed0
  401568:	52800021 	mov	w1, #0x1                   	// #1
  40156c:	b9000401 	str	w1, [x0,#4]
  401570:	90000080 	adrp	x0, 411000 <__FRAME_END__+0xf518>
  401574:	913d2000 	add	x0, x0, #0xf48
  401578:	52800021 	mov	w1, #0x1                   	// #1
  40157c:	b9003c01 	str	w1, [x0,#60]
  401580:	90000080 	adrp	x0, 411000 <__FRAME_END__+0xf518>
  401584:	913b4000 	add	x0, x0, #0xed0
  401588:	52800021 	mov	w1, #0x1                   	// #1
  40158c:	b9003c01 	str	w1, [x0,#60]
  401590:	90000080 	adrp	x0, 411000 <__FRAME_END__+0xf518>
  401594:	91366000 	add	x0, x0, #0xd98
  401598:	b9400003 	ldr	w3, [x0]
  40159c:	90000080 	adrp	x0, 411000 <__FRAME_END__+0xf518>
  4015a0:	913b4000 	add	x0, x0, #0xed0
  4015a4:	aa0003e2 	mov	x2, x0
  4015a8:	528ac221 	mov	w1, #0x5611                	// #22033
  4015ac:	72b80b01 	movk	w1, #0xc058, lsl #16
  4015b0:	2a0303e0 	mov	w0, w3
  4015b4:	97fffd22 	bl	400a3c <xioctl>
  4015b8:	3100041f 	cmn	w0, #0x1
  4015bc:	54000161 	b.ne	4015e8 <get_frame_from_queue+0xa4>
  4015c0:	97fffcac 	bl	400870 <__errno_location@plt>
  4015c4:	b9400000 	ldr	w0, [x0]
  4015c8:	71002c1f 	cmp	w0, #0xb
  4015cc:	54000081 	b.ne	4015dc <get_frame_from_queue+0x98>
  4015d0:	90000000 	adrp	x0, 401000 <map_asw_buffer+0xb8>
  4015d4:	912ae000 	add	x0, x0, #0xab8
  4015d8:	97fffc92 	bl	400820 <puts@plt>
  4015dc:	90000000 	adrp	x0, 401000 <map_asw_buffer+0xb8>
  4015e0:	912b0000 	add	x0, x0, #0xac0
  4015e4:	97fffcff 	bl	4009e0 <errno_exit>
  4015e8:	90000080 	adrp	x0, 411000 <__FRAME_END__+0xf518>
  4015ec:	913b4000 	add	x0, x0, #0xed0
  4015f0:	b9400001 	ldr	w1, [x0]
  4015f4:	90000080 	adrp	x0, 411000 <__FRAME_END__+0xf518>
  4015f8:	913ca000 	add	x0, x0, #0xf28
  4015fc:	2a0103e1 	mov	w1, w1
  401600:	f8617801 	ldr	x1, [x0,x1,lsl #3]
  401604:	90000080 	adrp	x0, 411000 <__FRAME_END__+0xf518>
  401608:	913b4000 	add	x0, x0, #0xed0
  40160c:	b9404800 	ldr	w0, [x0,#72]
  401610:	2a0003e0 	mov	w0, w0
  401614:	aa0003e2 	mov	x2, x0
  401618:	f9400fa0 	ldr	x0, [x29,#24]
  40161c:	97fffc5d 	bl	400790 <memcpy@plt>
  401620:	90000080 	adrp	x0, 411000 <__FRAME_END__+0xf518>
  401624:	913b4000 	add	x0, x0, #0xed0
  401628:	b9400001 	ldr	w1, [x0]
  40162c:	90000080 	adrp	x0, 411000 <__FRAME_END__+0xf518>
  401630:	913d2000 	add	x0, x0, #0xf48
  401634:	b9000001 	str	w1, [x0]
  401638:	90000080 	adrp	x0, 411000 <__FRAME_END__+0xf518>
  40163c:	91366000 	add	x0, x0, #0xd98
  401640:	b9400003 	ldr	w3, [x0]
  401644:	90000080 	adrp	x0, 411000 <__FRAME_END__+0xf518>
  401648:	913d2000 	add	x0, x0, #0xf48
  40164c:	aa0003e2 	mov	x2, x0
  401650:	d28ac1e1 	mov	x1, #0x560f                	// #22031
  401654:	f2b80b01 	movk	x1, #0xc058, lsl #16
  401658:	2a0303e0 	mov	w0, w3
  40165c:	97fffc8d 	bl	400890 <ioctl@plt>
  401660:	d503201f 	nop
  401664:	a8c27bfd 	ldp	x29, x30, [sp],#32
  401668:	d65f03c0 	ret

000000000040166c <Exit_Cameral>:
  40166c:	a9be7bfd 	stp	x29, x30, [sp,#-32]!
  401670:	910003fd 	mov	x29, sp
  401674:	b9001fbf 	str	wzr, [x29,#28]
  401678:	14000010 	b	4016b8 <Exit_Cameral+0x4c>
  40167c:	b9801fa0 	ldrsw	x0, [x29,#28]
  401680:	d37df001 	lsl	x1, x0, #3
  401684:	90000080 	adrp	x0, 411000 <__FRAME_END__+0xf518>
  401688:	913ca000 	add	x0, x0, #0xf28
  40168c:	8b000022 	add	x2, x1, x0
  401690:	90000080 	adrp	x0, 411000 <__FRAME_END__+0xf518>
  401694:	91376000 	add	x0, x0, #0xdd8
  401698:	b9400000 	ldr	w0, [x0]
  40169c:	93407c00 	sxtw	x0, w0
  4016a0:	aa0003e1 	mov	x1, x0
  4016a4:	aa0203e0 	mov	x0, x2
  4016a8:	97fffc66 	bl	400840 <munmap@plt>
  4016ac:	b9401fa0 	ldr	w0, [x29,#28]
  4016b0:	11000400 	add	w0, w0, #0x1
  4016b4:	b9001fa0 	str	w0, [x29,#28]
  4016b8:	b9401fa0 	ldr	w0, [x29,#28]
  4016bc:	71000c1f 	cmp	w0, #0x3
  4016c0:	54fffded 	b.le	40167c <Exit_Cameral+0x10>
  4016c4:	90000080 	adrp	x0, 411000 <__FRAME_END__+0xf518>
  4016c8:	91366000 	add	x0, x0, #0xd98
  4016cc:	b9400000 	ldr	w0, [x0]
  4016d0:	97fffc48 	bl	4007f0 <close@plt>
  4016d4:	52800000 	mov	w0, #0x0                   	// #0
  4016d8:	a8c27bfd 	ldp	x29, x30, [sp],#32
  4016dc:	d65f03c0 	ret

00000000004016e0 <Stop_Cameral>:
  4016e0:	a9be7bfd 	stp	x29, x30, [sp,#-32]!
  4016e4:	910003fd 	mov	x29, sp
  4016e8:	52800020 	mov	w0, #0x1                   	// #1
  4016ec:	b9001ba0 	str	w0, [x29,#24]
  4016f0:	90000080 	adrp	x0, 411000 <__FRAME_END__+0xf518>
  4016f4:	91366000 	add	x0, x0, #0xd98
  4016f8:	b9400000 	ldr	w0, [x0]
  4016fc:	910063a1 	add	x1, x29, #0x18
  401700:	aa0103e2 	mov	x2, x1
  401704:	d28ac261 	mov	x1, #0x5613                	// #22035
  401708:	f2a80081 	movk	x1, #0x4004, lsl #16
  40170c:	97fffc61 	bl	400890 <ioctl@plt>
  401710:	b9001fa0 	str	w0, [x29,#28]
  401714:	b9401fa0 	ldr	w0, [x29,#28]
  401718:	6b1f001f 	cmp	w0, wzr
  40171c:	540000c0 	b.eq	401734 <Stop_Cameral+0x54>
  401720:	90000000 	adrp	x0, 401000 <map_asw_buffer+0xb8>
  401724:	912b4000 	add	x0, x0, #0xad0
  401728:	97fffc22 	bl	4007b0 <perror@plt>
  40172c:	12800000 	mov	w0, #0xffffffff            	// #-1
  401730:	14000002 	b	401738 <Stop_Cameral+0x58>
  401734:	52800000 	mov	w0, #0x0                   	// #0
  401738:	a8c27bfd 	ldp	x29, x30, [sp],#32
  40173c:	d65f03c0 	ret

0000000000401740 <Exit_Framebuffer>:
  401740:	a9bf7bfd 	stp	x29, x30, [sp,#-16]!
  401744:	910003fd 	mov	x29, sp
  401748:	90000080 	adrp	x0, 411000 <__FRAME_END__+0xf518>
  40174c:	9136e000 	add	x0, x0, #0xdb8
  401750:	f9400000 	ldr	x0, [x0]
  401754:	d2980001 	mov	x1, #0xc000                	// #49152
  401758:	f2a00241 	movk	x1, #0x12, lsl #16
  40175c:	97fffc39 	bl	400840 <munmap@plt>
  401760:	90000080 	adrp	x0, 411000 <__FRAME_END__+0xf518>
  401764:	9136c000 	add	x0, x0, #0xdb0
  401768:	b9400000 	ldr	w0, [x0]
  40176c:	97fffc21 	bl	4007f0 <close@plt>
  401770:	52800000 	mov	w0, #0x0                   	// #0
  401774:	a8c17bfd 	ldp	x29, x30, [sp],#16
  401778:	d65f03c0 	ret

000000000040177c <main>:
  40177c:	a9bf7bfd 	stp	x29, x30, [sp,#-16]!
  401780:	910003fd 	mov	x29, sp
  401784:	97fffcc3 	bl	400a90 <open_device>
  401788:	97fffd40 	bl	400c88 <get_device_capability>
  40178c:	97fffd87 	bl	400da8 <set_attribute>
  401790:	97fffdc0 	bl	400e90 <request_buffer>
  401794:	97fffded 	bl	400f48 <map_asw_buffer>
  401798:	97fffe32 	bl	401060 <add_buffer_queue>
  40179c:	97fffe54 	bl	4010ec <start_stream>
  4017a0:	90000080 	adrp	x0, 411000 <__FRAME_END__+0xf518>
  4017a4:	913e8000 	add	x0, x0, #0xfa0
  4017a8:	97ffff67 	bl	401544 <get_frame_from_queue>
  4017ac:	90000080 	adrp	x0, 411000 <__FRAME_END__+0xf518>
  4017b0:	913e8000 	add	x0, x0, #0xfa0
  4017b4:	97fffe62 	bl	40113c <process_image>
  4017b8:	17fffffa 	b	4017a0 <main+0x24>
  4017bc:	00000000 	.inst	0x00000000 ; undefined

00000000004017c0 <__libc_csu_init>:
  4017c0:	a9bc7bfd 	stp	x29, x30, [sp,#-64]!
  4017c4:	910003fd 	mov	x29, sp
  4017c8:	a9025bf5 	stp	x21, x22, [sp,#32]
  4017cc:	a90153f3 	stp	x19, x20, [sp,#16]
  4017d0:	90000095 	adrp	x21, 411000 <__FRAME_END__+0xf518>
  4017d4:	90000094 	adrp	x20, 411000 <__FRAME_END__+0xf518>
  4017d8:	912bc2b5 	add	x21, x21, #0xaf0
  4017dc:	912be294 	add	x20, x20, #0xaf8
  4017e0:	cb150294 	sub	x20, x20, x21
  4017e4:	aa0203f6 	mov	x22, x2
  4017e8:	9343fe94 	asr	x20, x20, #3
  4017ec:	a90363f7 	stp	x23, x24, [sp,#48]
  4017f0:	2a0003f8 	mov	w24, w0
  4017f4:	aa0103f7 	mov	x23, x1
  4017f8:	97fffbd6 	bl	400750 <_init>
  4017fc:	b4000154 	cbz	x20, 401824 <__libc_csu_init+0x64>
  401800:	d2800013 	mov	x19, #0x0                   	// #0
  401804:	f8737aa3 	ldr	x3, [x21,x19,lsl #3]
  401808:	aa1603e2 	mov	x2, x22
  40180c:	aa1703e1 	mov	x1, x23
  401810:	2a1803e0 	mov	w0, w24
  401814:	91000673 	add	x19, x19, #0x1
  401818:	d63f0060 	blr	x3
  40181c:	eb14027f 	cmp	x19, x20
  401820:	54ffff21 	b.ne	401804 <__libc_csu_init+0x44>
  401824:	a94153f3 	ldp	x19, x20, [sp,#16]
  401828:	a9425bf5 	ldp	x21, x22, [sp,#32]
  40182c:	a94363f7 	ldp	x23, x24, [sp,#48]
  401830:	a8c47bfd 	ldp	x29, x30, [sp],#64
  401834:	d65f03c0 	ret

0000000000401838 <__libc_csu_fini>:
  401838:	d65f03c0 	ret
  40183c:	d503201f 	nop

Disassembly of section .fini:

0000000000401840 <_fini>:
  401840:	a9bf7bfd 	stp	x29, x30, [sp,#-16]!
  401844:	910003fd 	mov	x29, sp
  401848:	a8c17bfd 	ldp	x29, x30, [sp],#16
  40184c:	d65f03c0 	ret
